; Function Attrs: mustprogress uwtable
define hidden void @_ZN4cvc58internal6theory18NoOpTheoryRewriter11postRewriteENS0_12NodeTemplateILb0EEE(ptr dead_on_unwind noalias writable writeonly sret(%"struct.cvc5::internal::theory::RewriteResponse") align 8 captures(none) initializes((0, 4), (8, 16)) %0, ptr nonnull readnone align 8 captures(none) %1, ptr noundef readonly captures(none) %2) unnamed_addr #3 align 2 personality ptr @__gxx_personality_v0 {
  %4 = alloca %"class.cvc5::internal::NodeTemplate", align 8
  %5 = load ptr, ptr %2, align 8, !tbaa !19
  store ptr %5, ptr %4, align 8, !tbaa !17
  %6 = load i64, ptr %5, align 8
  %7 = lshr i64 %6, 40
  %8 = trunc nuw nsw i64 %7 to i32
  %9 = and i32 %8, 1048575
  %10 = icmp samesign ult i32 %9, 1048574
  br i1 %10, label %11, label %16, !prof !21

11:                                               ; preds = %3
  %12 = add i64 %6, 1099511627776
  %13 = and i64 %12, 1152920405095219200
  %14 = and i64 %6, -1152920405095219201
  %15 = or disjoint i64 %13, %14
  store i64 %15, ptr %5, align 8
  br label %_ZN4cvc58internal12NodeTemplateILb1EEC2ERKNS1_ILb0EEE.exit

16:                                               ; preds = %3
  %17 = icmp eq i32 %9, 1048574
  br i1 %17, label %18, label %_ZN4cvc58internal12NodeTemplateILb1EEC2ERKNS1_ILb0EEE.exit, !prof !22

18:                                               ; preds = %16
  %19 = or i64 %6, 1152920405095219200
  store i64 %19, ptr %5, align 8
  tail call void @_ZN4cvc58internal4expr9NodeValue20markRefCountMaxedOutEv(ptr noundef nonnull align 8 dereferenceable(24) %5)
  %.pre = load i64, ptr %5, align 8
  br label %_ZN4cvc58internal12NodeTemplateILb1EEC2ERKNS1_ILb0EEE.exit

_ZN4cvc58internal12NodeTemplateILb1EEC2ERKNS1_ILb0EEE.exit: ; preds = %11, %16, %18
  %20 = phi i64 [ %15, %11 ], [ %6, %16 ], [ %.pre, %18 ]
  store i32 0, ptr %0, align 8, !tbaa !25
  %21 = getelementptr inbounds nuw i8, ptr %0, i64 8
  store ptr %5, ptr %21, align 8, !tbaa !17
  %22 = lshr i64 %20, 40
  %23 = trunc nuw nsw i64 %22 to i32
  %24 = and i32 %23, 1048575
  %25 = icmp samesign ult i32 %24, 1048574
  br i1 %25, label %26, label %31, !prof !21

26:                                               ; preds = %_ZN4cvc58internal12NodeTemplateILb1EEC2ERKNS1_ILb0EEE.exit
  %27 = add i64 %20, 1099511627776
  %28 = and i64 %27, 1152920405095219200
  %29 = and i64 %20, -1152920405095219201
  %30 = or disjoint i64 %28, %29
  store i64 %30, ptr %5, align 8
  br label %_ZN4cvc58internal6theory15RewriteResponseC2ENS1_13RewriteStatusENS0_12NodeTemplateILb1EEE.exit

31:                                               ; preds = %_ZN4cvc58internal12NodeTemplateILb1EEC2ERKNS1_ILb0EEE.exit
  %32 = icmp eq i32 %24, 1048574
  br i1 %32, label %33, label %_ZN4cvc58internal6theory15RewriteResponseC2ENS1_13RewriteStatusENS0_12NodeTemplateILb1EEE.exit, !prof !22

33:                                               ; preds = %31
  %34 = or i64 %20, 1152920405095219200
  store i64 %34, ptr %5, align 8
  invoke void @_ZN4cvc58internal4expr9NodeValue20markRefCountMaxedOutEv(ptr noundef nonnull align 8 dereferenceable(24) %5)
          to label %._ZN4cvc58internal6theory15RewriteResponseC2ENS1_13RewriteStatusENS0_12NodeTemplateILb1EEE.exit_crit_edge unwind label %47

._ZN4cvc58internal6theory15RewriteResponseC2ENS1_13RewriteStatusENS0_12NodeTemplateILb1EEE.exit_crit_edge: ; preds = %33
  %.pre1 = load i64, ptr %5, align 8
  br label %_ZN4cvc58internal6theory15RewriteResponseC2ENS1_13RewriteStatusENS0_12NodeTemplateILb1EEE.exit

_ZN4cvc58internal6theory15RewriteResponseC2ENS1_13RewriteStatusENS0_12NodeTemplateILb1EEE.exit: ; preds = %._ZN4cvc58internal6theory15RewriteResponseC2ENS1_13RewriteStatusENS0_12NodeTemplateILb1EEE.exit_crit_edge, %31, %26
  %35 = phi i64 [ %.pre1, %._ZN4cvc58internal6theory15RewriteResponseC2ENS1_13RewriteStatusENS0_12NodeTemplateILb1EEE.exit_crit_edge ], [ %20, %31 ], [ %30, %26 ]
  %36 = and i64 %35, 1152920405095219200
  %.not.i.i = icmp eq i64 %36, 1152920405095219200
  br i1 %.not.i.i, label %_ZN4cvc58internal12NodeTemplateILb1EED2Ev.exit, label %37, !prof !22

37:                                               ; preds = %_ZN4cvc58internal6theory15RewriteResponseC2ENS1_13RewriteStatusENS0_12NodeTemplateILb1EEE.exit
  %38 = add i64 %35, 1152920405095219200
  %39 = and i64 %38, 1152920405095219200
  %40 = and i64 %35, -1152920405095219201
  %41 = or disjoint i64 %39, %40
  store i64 %41, ptr %5, align 8
  %42 = icmp eq i64 %39, 0
  br i1 %42, label %43, label %_ZN4cvc58internal12NodeTemplateILb1EED2Ev.exit, !prof !22

43:                                               ; preds = %37
  invoke void @_ZN4cvc58internal4expr9NodeValue15markForDeletionEv(ptr noundef nonnull align 8 dereferenceable(24) %5)
          to label %_ZN4cvc58internal12NodeTemplateILb1EED2Ev.exit unwind label %44

44:                                               ; preds = %43
  %45 = landingpad { ptr, i32 }
          catch ptr null
  %46 = extractvalue { ptr, i32 } %45, 0
  tail call void @__clang_call_terminate(ptr %46) #27
  unreachable

_ZN4cvc58internal12NodeTemplateILb1EED2Ev.exit:   ; preds = %_ZN4cvc58internal6theory15RewriteResponseC2ENS1_13RewriteStatusENS0_12NodeTemplateILb1EEE.exit, %37, %43
  ret void

47:                                               ; preds = %33
  %48 = landingpad { ptr, i32 }
          cleanup
  call void @_ZN4cvc58internal12NodeTemplateILb1EED2Ev(ptr noundef nonnull align 8 dereferenceable(8) %4) #26
  resume { ptr, i32 } %48
}